; Function Attrs: mustprogress uwtable
define hidden noundef zeroext i1 @_ZN11user_solver6solver7visitedEP4expr(ptr noundef nonnull align 8 dereferenceable(492) %this, ptr noundef %e) unnamed_addr #3 align 2 {
entry:
  %call = tail call noundef ptr @_ZNK3euf13th_euf_solver10expr2enodeEP4expr(ptr noundef nonnull align 8 dereferenceable(108) %this, ptr noundef %e)
  %tobool.not = icmp eq ptr %call, null
  br i1 %tobool.not, label %land.end, label %land.rhs

land.rhs:                                         ; preds = %entry
  %m_id.i = getelementptr inbounds i8, ptr %this, i64 12
  %0 = load i32, ptr %m_id.i, align 4
  %m_th_vars.i.i = getelementptr inbounds i8, ptr %call, i64 88
  %bf.load.i.i.i.i.i = load i32, ptr %m_th_vars.i.i, align 8
  %cmp.i.i.i.i = icmp ugt i32 %bf.load.i.i.i.i.i, -257
  br i1 %cmp.i.i.i.i, label %land.end, label %do.body.i.i.i

do.body.i.i.i:                                    ; preds = %land.rhs, %if.end5.i.i.i
  %l.0.i.i.i = phi ptr [ %2, %if.end5.i.i.i ], [ %m_th_vars.i.i, %land.rhs ]
  %bf.load.i.i.i.i = load i32, ptr %l.0.i.i.i, align 8
  %bf.shl.i.i.i.i = shl i32 %bf.load.i.i.i.i, 24
  %bf.ashr.i.i.i.i = ashr exact i32 %bf.shl.i.i.i.i, 24
  %cmp.i.i.i = icmp eq i32 %bf.ashr.i.i.i.i, %0
  br i1 %cmp.i.i.i, label %if.then3.i.i.i, label %if.end5.i.i.i

if.then3.i.i.i:                                   ; preds = %do.body.i.i.i
  %1 = icmp ult i32 %bf.load.i.i.i.i, -256
  br label %land.end

if.end5.i.i.i:                                    ; preds = %do.body.i.i.i
  %m_next.i.i.i.i = getelementptr inbounds i8, ptr %l.0.i.i.i, i64 8
  %2 = load ptr, ptr %m_next.i.i.i.i, align 8
  %tobool.not.i.i.i = icmp eq ptr %2, null
  br i1 %tobool.not.i.i.i, label %land.end, label %do.body.i.i.i, !llvm.loop !17

land.end:                                         ; preds = %if.end5.i.i.i, %if.then3.i.i.i, %land.rhs, %entry
  %3 = phi i1 [ false, %entry ], [ %1, %if.then3.i.i.i ], [ false, %land.rhs ], [ false, %if.end5.i.i.i ]
  ret i1 %3
}